; Function Attrs: mustprogress nounwind uwtable
define hidden void @_ZN27JvmtiVTMSTransitionDisabler20VTMS_vthread_unmountEP8_jobjectb(ptr noundef %0, i1 noundef zeroext %1) local_unnamed_addr #0 align 2 {
  br i1 %1, label %3, label %12

3:                                                ; preds = %2
  %4 = load i8, ptr @_ZN11JvmtiExport28_should_post_vthread_unmountE, align 1
  %5 = trunc i8 %4 to i1
  br i1 %5, label %6, label %7

6:                                                ; preds = %3
  tail call void @_ZN11JvmtiExport20post_vthread_unmountEP8_jobject(ptr noundef %0) #13
  br label %7

7:                                                ; preds = %6, %3
  %8 = tail call align 8 ptr @llvm.threadlocal.address.p0(ptr align 8 @_ZN6Thread12_thr_currentE)
  %9 = load ptr, ptr %8, align 8
  tail call void @_ZN27JvmtiVTMSTransitionDisabler21start_VTMS_transitionEP8_jobjectb(ptr noundef %0, i1 zeroext poison)
  %10 = tail call noundef ptr @_ZNK10JavaThread9threadObjEv(ptr noundef nonnull align 8 dereferenceable(1800) %9) #13
  %11 = tail call noundef ptr @_ZN10JavaThread31rebind_to_jvmti_thread_state_ofEP7oopDesc(ptr noundef nonnull align 8 dereferenceable(1800) %9, ptr noundef %10) #13
  br label %13

12:                                               ; preds = %2
  tail call void @_ZN27JvmtiVTMSTransitionDisabler22finish_VTMS_transitionEP8_jobjectb(ptr noundef %0, i1 noundef zeroext false)
  br label %13

13:                                               ; preds = %12, %7
  ret void
}